; Function Attrs: mustprogress uwtable
define noundef signext i8 @_ZNK6icu_7522CharsetRecog_8859_7_el5matchEPNS_9InputTextEPNS_12CharsetMatchE(ptr noundef nonnull align 8 dereferenceable(8) %this, ptr noundef %textIn, ptr noundef %results) unnamed_addr #6 align 2 {
entry:
  %fC1Bytes = getelementptr inbounds i8, ptr %textIn, i64 24
  %0 = load i8, ptr %fC1Bytes, align 8
  %tobool.not = icmp eq i8 %0, 0
  %cond = select i1 %tobool.not, ptr @.str.8, ptr @.str.10
  %vtable = load ptr, ptr %this, align 8
  %vfn = getelementptr inbounds i8, ptr %vtable, i64 40
  %1 = load ptr, ptr %vfn, align 8
  %call = tail call noundef i32 %1(ptr noundef nonnull align 8 dereferenceable(8) %this, ptr noundef %textIn, ptr noundef nonnull @_ZN6icu_75L16ngrams_8859_7_elE, ptr noundef nonnull @_ZN6icu_75L14charMap_8859_7E)
  tail call void @_ZN6icu_7512CharsetMatch3setEPNS_9InputTextEPKNS_17CharsetRecognizerEiPKcS7_(ptr noundef nonnull align 8 dereferenceable(32) %results, ptr noundef %textIn, ptr noundef nonnull %this, i32 noundef %call, ptr noundef nonnull %cond, ptr noundef nonnull @.str.9)
  %cmp = icmp sgt i32 %call, 0
  %conv = zext i1 %cmp to i8
  ret i8 %conv
}